; Function Attrs: nounwind uwtable
define hidden noundef zeroext i1 @je_background_thread_create(ptr noundef %0, i32 noundef %1) local_unnamed_addr #0 {
  %3 = tail call i32 @pthread_mutex_trylock(ptr noundef nonnull getelementptr inbounds nuw (i8, ptr @je_background_thread_lock, i64 64)) #12
  %.not.i = icmp eq i32 %3, 0
  br i1 %.not.i, label %4, label %atomic_store_b.exit.i

atomic_store_b.exit.i:                            ; preds = %2
  tail call void @je_malloc_mutex_lock_slow(ptr noundef nonnull @je_background_thread_lock) #12
  store atomic i8 1, ptr getelementptr inbounds nuw (i8, ptr @je_background_thread_lock, i64 104) monotonic, align 8
  br label %4

4:                                                ; preds = %atomic_store_b.exit.i, %2
  %5 = load i64, ptr getelementptr inbounds nuw (i8, ptr @je_background_thread_lock, i64 56), align 8, !tbaa !8
  %6 = add i64 %5, 1
  store i64 %6, ptr getelementptr inbounds nuw (i8, ptr @je_background_thread_lock, i64 56), align 8, !tbaa !8
  %7 = load ptr, ptr getelementptr inbounds nuw (i8, ptr @je_background_thread_lock, i64 48), align 8, !tbaa !15
  %.not.i.i = icmp eq ptr %7, %0
  br i1 %.not.i.i, label %malloc_mutex_lock.exit, label %8

8:                                                ; preds = %4
  store ptr %0, ptr getelementptr inbounds nuw (i8, ptr @je_background_thread_lock, i64 48), align 8, !tbaa !15
  %9 = load i64, ptr getelementptr inbounds nuw (i8, ptr @je_background_thread_lock, i64 40), align 8, !tbaa !16
  %10 = add i64 %9, 1
  store i64 %10, ptr getelementptr inbounds nuw (i8, ptr @je_background_thread_lock, i64 40), align 8, !tbaa !16
  br label %malloc_mutex_lock.exit

malloc_mutex_lock.exit:                           ; preds = %4, %8
  %11 = tail call fastcc zeroext i1 @background_thread_create_locked(ptr noundef %0, i32 noundef %1)
  store atomic i8 0, ptr getelementptr inbounds nuw (i8, ptr @je_background_thread_lock, i64 104) monotonic, align 8
  %12 = tail call i32 @pthread_mutex_unlock(ptr noundef nonnull getelementptr inbounds nuw (i8, ptr @je_background_thread_lock, i64 64)) #12
  ret i1 %11
}